target datalayout = "e-m:e-p270:32:32-p271:32:32-p272:64:64-i64:64-i128:128-f80:128-n8:16:32:64-S128"
target triple = "x86_64-pc-linux-gnu"

%"class.casadi::SXElem" = type { ptr }

; Function Attrs: mustprogress uwtable
define noundef zeroext i1 @_ZNK6casadi6SXElem5is_opEx(ptr noundef nonnull align 8 dereferenceable(8) %0, i64 noundef %1) #5 align 2 {
  %3 = alloca ptr, align 8
  %4 = alloca i64, align 8
  store ptr %0, ptr %3, align 8
  store i64 %1, ptr %4, align 8
  %5 = load ptr, ptr %3, align 8
  %6 = getelementptr inbounds %"class.casadi::SXElem", ptr %5, i32 0, i32 0
  %7 = load ptr, ptr %6, align 8
  %8 = load i64, ptr %4, align 8
  %9 = load ptr, ptr %7, align 8
  %10 = getelementptr inbounds ptr, ptr %9, i64 6
  %11 = load ptr, ptr %10, align 8
  %12 = call noundef zeroext i1 %11(ptr noundef nonnull align 8 dereferenceable(16) %7, i64 noundef %8)
  ret i1 %12
}

; Function Attrs: mustprogress uwtable
define noundef double @_ZNK6casadi6SXElemcvdEv(ptr noundef nonnull align 8 dereferenceable(8) %0) #5 align 2 {
  %2 = alloca ptr, align 8
  store ptr %0, ptr %2, align 8
  %3 = load ptr, ptr %2, align 8
  %4 = getelementptr inbounds %"class.casadi::SXElem", ptr %3, i32 0, i32 0
  %5 = load ptr, ptr %4, align 8
  %6 = load ptr, ptr %5, align 8
  %7 = getelementptr inbounds ptr, ptr %6, i64 13
  %8 = load ptr, ptr %7, align 8
  %9 = call noundef double %8(ptr noundef nonnull align 8 dereferenceable(16) %5)
  ret double %9
}

; Function Attrs: mustprogress uwtable
define noundef zeroext i1 @_ZNK6casadi6SXElem11is_constantEv(ptr noundef nonnull align 8 dereferenceable(8) %0) #5 align 2 {
  %2 = alloca ptr, align 8
  store ptr %0, ptr %2, align 8
  %3 = load ptr, ptr %2, align 8
  %4 = getelementptr inbounds %"class.casadi::SXElem", ptr %3, i32 0, i32 0
  %5 = load ptr, ptr %4, align 8
  %6 = load ptr, ptr %5, align 8
  %7 = getelementptr inbounds ptr, ptr %6, i64 2
  %8 = load ptr, ptr %7, align 8
  %9 = call noundef zeroext i1 %8(ptr noundef nonnull align 8 dereferenceable(16) %5)
  ret i1 %9
}

; Function Attrs: mustprogress uwtable
define noundef zeroext i1 @_ZNK6casadi6SXElem14is_nonnegativeEv(ptr noundef nonnull align 8 dereferenceable(8) %0) #5 align 2 {
  %2 = alloca i1, align 1
  %3 = alloca ptr, align 8
  store ptr %0, ptr %3, align 8
  %4 = load ptr, ptr %3, align 8
  %5 = call noundef zeroext i1 @_ZNK6casadi6SXElem11is_constantEv(ptr noundef nonnull align 8 dereferenceable(8) %4)
  br i1 %5, label %6, label %9

6:                                                ; preds = %1
  %7 = call noundef double @_ZNK6casadi6SXElemcvdEv(ptr noundef nonnull align 8 dereferenceable(8) %4)
  %8 = fcmp oge double %7, 0.000000e+00
  store i1 %8, ptr %2, align 1
  br label %15

9:                                                ; preds = %1
  %10 = call noundef zeroext i1 @_ZNK6casadi6SXElem5is_opEx(ptr noundef nonnull align 8 dereferenceable(8) %4, i64 noundef 11)
  br i1 %10, label %13, label %11

11:                                               ; preds = %9
  %12 = call noundef zeroext i1 @_ZNK6casadi6SXElem5is_opEx(ptr noundef nonnull align 8 dereferenceable(8) %4, i64 noundef 29)
  br i1 %12, label %13, label %14

13:                                               ; preds = %11, %9
  store i1 true, ptr %2, align 1
  br label %15

14:                                               ; preds = %11
  store i1 false, ptr %2, align 1
  br label %15

15:                                               ; preds = %14, %13, %6
  %16 = load i1, ptr %2, align 1
  ret i1 %16
}