; Function Attrs: mustprogress uwtable
define noundef zeroext i1 @_ZNK6casadi6SXElem14is_nonnegativeEv(ptr nocapture noundef nonnull readonly align 8 dereferenceable(8) %0) local_unnamed_addr #6 align 2 {
  %2 = load ptr, ptr %0, align 8
  %3 = load ptr, ptr %2, align 8
  %4 = getelementptr inbounds i8, ptr %3, i64 16
  %5 = load ptr, ptr %4, align 8
  %6 = tail call noundef zeroext i1 %5(ptr noundef nonnull align 8 dereferenceable(16) %2)
  %7 = load ptr, ptr %0, align 8
  %8 = load ptr, ptr %7, align 8
  br i1 %6, label %9, label %14

9:                                                ; preds = %1
  %10 = getelementptr inbounds i8, ptr %8, i64 104
  %11 = load ptr, ptr %10, align 8
  %12 = tail call noundef double %11(ptr noundef nonnull align 8 dereferenceable(16) %7)
  %13 = fcmp oge double %12, 0.000000e+00
  br label %24

14:                                               ; preds = %1
  %15 = getelementptr inbounds i8, ptr %8, i64 48
  %16 = load ptr, ptr %15, align 8
  %17 = tail call noundef zeroext i1 %16(ptr noundef nonnull align 8 dereferenceable(16) %7, i64 noundef 11)
  br i1 %17, label %24, label %18

18:                                               ; preds = %14
  %19 = load ptr, ptr %0, align 8
  %20 = load ptr, ptr %19, align 8
  %21 = getelementptr inbounds i8, ptr %20, i64 48
  %22 = load ptr, ptr %21, align 8
  %23 = tail call noundef zeroext i1 %22(ptr noundef nonnull align 8 dereferenceable(16) %19, i64 noundef 29)
  br label %24

24:                                               ; preds = %18, %14, %9
  %.0 = phi i1 [ %13, %9 ], [ true, %14 ], [ %23, %18 ]
  ret i1 %.0
}